MPASM  5.35beta                       PROGRAM.ASM   4-25-2017  13:06:05         PAGE  1


LOC  OBJECT CODE     LINE SOURCE TEXT
  VALUE

                      00001                         title   "Maze Solver"
                      00002                         list    p=16f84A
                      00003                         radix   hex
                      00004                         include "p16f84A.inc"
                      00001         LIST
                      00002 ; P16F84A.INC  Standard Header File, Version 2.00    Microchip Technology, Inc.
                      00134         LIST
                      00005 
  0000000C            00006 COUNTER         EQU             d'12'
  0000000D            00007 COUNTER2        EQU             d'13'
  0000000E            00008 TIMER3          EQU             d'14'
  0000000F            00009 SELECT          EQU             d'15'
  00000010            00010 DEBOUNCECOUNT   EQU             d'16'
  00000011            00011 ADDRESSING_COUNTER      EQU     d'17'
  00000012            00012 CURRENT_ADDRESS         EQU     d'18'
  00000013            00013 OBSTACLE_COUNTER        EQU     d'19'
  00000028            00014 CURRENT_POSITION        EQU     d'40'
  00000029            00015 ITERATIONS_COUNTER  EQU d'41'
  0000002A            00016 STARTING_POSITION EQU d'42'     
  0000002A            00017 CURSOR_POSITION         EQU     d'42'   
  0000002B            00018 PREVIOUS_COMMAND        EQU     d'43'   ;
  0000002B            00019 MAZE_STATUS             EQU     d'43'   ; to check if maze solved, no path, or not solved
                      00020 ;      0th bit: solved, not solved
                      00021 ;          1st bit: path, no path
  00000032            00022 REMAINING_NUMBER        EQU     d'50'
  0000002C            00023 LINE    EQU             d'44'
  0000003B            00024 TEMP    EQU             d'59';RAMI
                      00025 
0000                  00026                         ORG             0x0
0000   2808           00027                         GOTO    START
                      00028 
0004                  00029                         ORG     0x04
0004   180B           00030                         BTFSC   INTCON, RBIF    ;interrupt for button presses
0005   28D4           00031                         GOTO    BUTTONPRESS
0006   190B           00032                         BTFSC   INTCON, T0IF    ;timer interrupt flag test
0007   2921           00033                         GOTO    timerInterrupt  
                      00034 
                      00035 
                      00036                         
0008   0185           00037 START           CLRF    PORTA
                      00038                         ;clearing flags for menu star
0009   018F           00039                         CLRF    SELECT
000A   3002           00040                         MOVLW   b'10'
000B   008F           00041                         MOVWF   SELECT  
                      00042 
                      00043                         
000C   1683           00044                         BSF             STATUS,RP0      ;jumping to bank 1
Message[302]: Register in operand not in bank 0.  Ensure that bank bits are correct.
000D   0185           00045                         CLRF    TRISA   ;all port A out
                      00046                         
                      00047                         ;CONFIGURING PORTB PINS:
                      00048                         ;RB0 -> OUTPUT TO BUZZER
                      00049                         ;RB4-7 -> INPUTS 
MPASM  5.35beta                       PROGRAM.ASM   4-25-2017  13:06:05         PAGE  2
Maze Solver

LOC  OBJECT CODE     LINE SOURCE TEXT
  VALUE

                      00050                         ;RB2 , RB3 -> OUTPUTS TO LEDS
                      00051                         ;RB1 -> OUTPUT TO LCD ENABLE
000E   30F0           00052                         MOVLW   0xF0    
Message[302]: Register in operand not in bank 0.  Ensure that bank bits are correct.
000F   0086           00053                         MOVWF   TRISB
                      00054 
0010   3087           00055                         MOVLW   b'10000111'     ;SETTING OPTION REG to support interrupts
Message[302]: Register in operand not in bank 0.  Ensure that bank bits are correct.
0011   0081           00056                         MOVWF   OPTION_REG
                      00057 
0012   1283           00058                         BCF             STATUS,RP0      ;jumping back to bank 0
                      00059                         
0013   0185           00060                         CLRF    PORTA   ;clearing PORTA
0014   0186           00061                         CLRF    PORTB   ;CLEARING PORTB
                      00062 
0015   23A1           00063                         CALL    POWERUPDELAY ;delaying 40ms waiting power up LCD
                      00064                         
0016   3002           00065                         MOVLW   b'00010'
0017   238F           00066                         CALL    ET
                      00067                         
0018   3002           00068                         MOVLW   b'00010'
0019   238F           00069                         CALL    ET
                      00070 
001A   3008           00071                         MOVLW   b'01000'        ;N=1 2 line mode, F=0
001B   238F           00072                         CALL    ET
                      00073 
001C   3000           00074                         MOVLW   b'00000'        ;initializing display
001D   238F           00075                         CALL    ET                      
                      00076 
001E   300C           00077                         MOVLW   b'01100'        ;setting display to ON
001F   238F           00078                         CALL    ET
                      00079 
0020   23D9           00080                         CALL    CURSOR_MOVERIGHT
                      00081 
0021   23C5           00082                         CALL    CLEARDISPLAY
                      00083 
                      00084                         
                      00085 
0022   22D3           00086 WELCOME         CALL    charSp  ;Welcome Screen
0023   22D3           00087                         CALL    charSp
0024   22D3           00088                         CALL    charSp
0025   22E2           00089                         CALL    letterM
0026   22F6           00090                         CALL    letterA
0027   2328           00091                         CALL    letterZ
0028   22EC           00092                         CALL    letterE
0029   22D3           00093                         CALL    charSp
002A   231E           00094                         CALL    letterS
002B   230F           00095                         CALL    letterO
002C   2300           00096                         CALL    letterL
002D   22D8           00097                         CALL    letterV
002E   22EC           00098                         CALL    letterE
002F   22DD           00099                         CALL    letterR
                      00100 
MPASM  5.35beta                       PROGRAM.ASM   4-25-2017  13:06:05         PAGE  3
Maze Solver

LOC  OBJECT CODE     LINE SOURCE TEXT
  VALUE

0030   239B           00101                         CALL    LONGER_DELAY    ; delay before clearing the display
0031   23C5           00102                         CALL    CLEARDISPLAY    ; clear display         
                      00103 
                      00104 
                      00105 
                      00106 ;----------------|
                      00107 ;START MENU              |
                      00108 ;----------------|
                      00109 
0032   22D3           00110 MENU            CALL    charSp  ;Mode Selection Menu
0033   22D3           00111                         CALL    charSp
0034   22D3           00112                         CALL    charSp
0035   22D3           00113                         CALL    charSp
0036   2337           00114                         CALL    charStar
0037   22E7           00115                         CALL    letterD
0038   22EC           00116                         CALL    letterE
0039   22F1           00117                         CALL    letterF
003A   22F6           00118                         CALL    letterA
003B   22FB           00119                         CALL    letterU
003C   2300           00120                         CALL    letterL
003D   2305           00121                         CALL    letterT
                      00122                         
003E   236E           00123                         CALL    NEWLINE
                      00124                         
003F   22D3           00125                         CALL    charSp
0040   230F           00126                         CALL    letterO
0041   2319           00127                         CALL    letterB
0042   231E           00128                         CALL    letterS
0043   2305           00129                         CALL    letterT
0044   22F6           00130                         CALL    letterA
0045   2323           00131                         CALL    letterC
0046   2300           00132                         CALL    letterL
0047   22EC           00133                         CALL    letterE
0048   22D3           00134                         CALL    charSp
0049   22D3           00135                         CALL    charSp
004A   22D3           00136                         CALL    charSp
004B   22E2           00137                         CALL    letterM
004C   22F6           00138                         CALL    letterA
004D   2328           00139                         CALL    letterZ
004E   22EC           00140                         CALL    letterE
                      00141 
                      00142                         ;Initializing first timer delay
004F   0181           00143                         CLRF    TMR0
0050   3026           00144                         MOVLW   d'38'
0051   008E           00145                         MOVWF   TIMER3
                      00146 
0052   158B           00147                         BSF             INTCON,RBIE
0053   178B           00148                         BSF             INTCON,GIE
                      00149 
0054   2854           00150 MENULOOP                GOTO    MENULOOP
                      00151 
                      00152 
                      00153 ;--------------------DEFAULT MODE-------------------
MPASM  5.35beta                       PROGRAM.ASM   4-25-2017  13:06:05         PAGE  4
Maze Solver

LOC  OBJECT CODE     LINE SOURCE TEXT
  VALUE

0055   23C5           00154 DEFAULT_START   CALL CLEARDISPLAY
0056   23CA           00155                                 CALL    SET_BLINKING 
0057   3006           00156                                 MOVLW   b'110'
0058   008F           00157                                 MOVWF   SELECT
                      00158                                 
0059   1414           00159                                 BSF d'20',0 ;obstacle
005A   1495           00160                                 BSF d'21',1 ;empty
005B   1496           00161                                 BSF d'22',1 ;empty
005C   1497           00162                                 BSF d'23',1 ;empty
005D   1498           00163                                 BSF d'24',1 ;empty
005E   1519           00164                                 BSF d'25',2 ;S
005F   149A           00165                                 BSF d'26',1 ;empty
0060   149B           00166                                 BSF d'27',1 ;empty
0061   149C           00167                                 BSF d'28',1 ;empty
0062   149D           00168                                 BSF d'29',1 ;empty
0063   159E           00169                                 BSF d'30',3 ;E
0064   141F           00170                                 BSF d'31',0 ;obstacle
0065   14A0           00171                                 BSF d'32',1 ;empty
0066   1421           00172                                 BSF d'33',0 ;obstacle
0067   1422           00173                                 BSF d'34',0 ;obstacle
0068   14A3           00174                                 BSF d'35',1 ;empty
0069   14A4           00175                                 BSF d'36',1 ;empty
006A   14A5           00176                                 BSF d'37',1 ;empty
006B   1426           00177                                 BSF d'38',0 ;obstacle
006C   1427           00178                                 BSF d'39',0 ;obstacle
                      00179                         
                      00180 
006D   1586           00181                                 BSF PORTB,3     ;turn on RED LED        
006E   1106           00182                                 BCF PORTB,2 ;ground GREEN LED
                      00183                                 
006F   23E7           00184                                 CALL INDA       ;PRINT THE ELEMENTS PRESENT IN THE REGISTERS
0070   22D3           00185                                 CALL charSp
0071   22D3           00186                                 CALL charSp
0072   22D3           00187                                 CALL charSp
0073   231E           00188                                 CALL letterS
0074   22D3           00189                                 CALL charSp
0075   2346           00190                                 CALL at
                      00191 
0076   236E           00192                                 CALL NEWLINE
                      00193 
0077   23EC           00194                                 CALL INDA1
0078   22D3           00195                                 CALL charSp
0079   22D3           00196                                 CALL charSp
007A   22D3           00197                                 CALL charSp
007B   2350           00198                                 CALL nb0
007C   234B           00199                                 CALL comma
007D   2369           00200                                 CALL nb5
                      00201 
007E   3008           00202                                 MOVLW   b'01000' ; Set Cursor Starting Position
007F   238F           00203                                 CALL    ET
                      00204                 
0080   3005           00205                                 MOVLW   b'00101' 
0081   238F           00206                                 CALL    ET
MPASM  5.35beta                       PROGRAM.ASM   4-25-2017  13:06:05         PAGE  5
Maze Solver

LOC  OBJECT CODE     LINE SOURCE TEXT
  VALUE

                      00207 
                      00208                                 
0082   3019           00209                                 MOVLW   d'25'
0083   00A8           00210                                 MOVWF   CURRENT_POSITION
0084   00AA           00211                                 MOVWF   STARTING_POSITION
                      00212                                 
0085   0009           00213                                 RETFIE
                      00214 
                      00215 ;--------------------OBSTACLE MODE-------------------
0086   23C5           00216 OBSTACLE_START  CALL    CLEARDISPLAY
0087   23CA           00217                                 CALL    SET_BLINKING
0088   3004           00218                                 MOVLW   b'100'
0089   008F           00219                                 MOVWF   SELECT
                      00220 
008A   1514           00221                                 BSF     d'20',2 ;S
008B   237C           00222                                 CALL    SET_EMPTY_REGISTERS
008C   15A7           00223                                 BSF     d'39',3 ;E
                      00224 
008D   1506           00225                                 BSF     PORTB,2 ;TURN ON GREEN LED
008E   1186           00226                                 BCF     PORTB,3 ;GROUND RED LED
                      00227 
008F   23E7           00228                                 CALL    INDA    ;PRINT THE ELEMENTS PRESENT IN THE REGISTERS
0090   22D3           00229                                 CALL    charSp
0091   22D3           00230                                 CALL    charSp
0092   22D3           00231                                 CALL    charSp
0093   231E           00232                                 CALL    letterS
0094   22D3           00233                                 CALL    charSp
0095   2346           00234                                 CALL    at
                      00235                                 
0096   236E           00236                                 CALL    NEWLINE
                      00237         
0097   23EC           00238                                 CALL    INDA1
0098   22D3           00239                                 CALL    charSp
0099   22D3           00240                                 CALL    charSp
009A   22D3           00241                                 CALL    charSp
009B   2350           00242                                 CALL    nb0
009C   234B           00243                                 CALL    comma
009D   2369           00244                                 CALL    nb5
                      00245 
009E   3008           00246                                 MOVLW   b'01000' ; Set Cursor Starting Position
009F   238F           00247                                 CALL    ET
                      00248                 
00A0   3001           00249                                 MOVLW   b'00001' 
00A1   238F           00250                                 CALL    ET
                      00251 
00A2   3000           00252                                 MOVLW   d'0'
00A3   0091           00253                                 MOVWF   ADDRESSING_COUNTER
00A4   0093           00254                                 MOVWF   OBSTACLE_COUNTER                                
                      00255 
00A5   3015           00256                                 MOVLW   d'21'
00A6   0092           00257                                 MOVWF   CURRENT_ADDRESS
00A7   0084           00258                                 MOVWF   FSR
                      00259 
MPASM  5.35beta                       PROGRAM.ASM   4-25-2017  13:06:05         PAGE  6
Maze Solver

LOC  OBJECT CODE     LINE SOURCE TEXT
  VALUE

00A8   3014           00260                                 MOVLW   d'20'
00A9   00A8           00261                                 MOVWF   CURRENT_POSITION
00AA   00AA           00262                                 MOVWF   STARTING_POSITION
                      00263 
00AB   0009           00264                                 RETFIE
                      00265 
                      00266 
                      00267 ;--------------------MAZE MODE-------------------
00AC   23C5           00268 MAZE_START              CALL    CLEARDISPLAY
00AD   23CA           00269                                 CALL    SET_BLINKING
00AE   3005           00270                                 MOVLW   b'101'
00AF   008F           00271                                 MOVWF   SELECT
                      00272 
00B0   1494           00273                                 BSF     d'20',1 ;empty
00B1   237C           00274                                 CALL    SET_EMPTY_REGISTERS
00B2   14A7           00275                                 BSF     d'39',1 ;empty
                      00276 
00B3   1506           00277                                 BSF     PORTB,2 ;TURN ON GREEN LED
00B4   1586           00278                                 BSF     PORTB,3 ;TURN ON RED LED
                      00279 
00B5   23E7           00280                                 CALL    INDA    ;PRINT THE ELEMENTS PRESENT IN THE REGISTERS
00B6   22D3           00281                                 CALL    charSp
00B7   22D3           00282                                 CALL    charSp
00B8   230F           00283                                 CALL    letterO
00B9   2319           00284                                 CALL    letterB
00BA   231E           00285                                 CALL    letterS
                      00286 
00BB   236E           00287                                 CALL    NEWLINE
                      00288 
00BC   23EC           00289                                 CALL    INDA1
00BD   22D3           00290                                 CALL    charSp
00BE   22DD           00291                                 CALL    letterR
00BF   22EC           00292                                 CALL    letterE
00C0   22E2           00293                                 CALL    letterM
00C1   22D3           00294                                 CALL    charSp
00C2   2369           00295                                 CALL    nb5
                      00296 
00C3   3008           00297                                 MOVLW   b'01000' ; Set Cursor Starting Position
00C4   238F           00298                                 CALL    ET
                      00299                 
00C5   3000           00300                                 MOVLW   b'00000' 
00C6   238F           00301                                 CALL    ET
                      00302 
00C7   3000           00303                                 MOVLW   d'0'
00C8   0091           00304                                 MOVWF   ADDRESSING_COUNTER
00C9   0093           00305                                 MOVWF   OBSTACLE_COUNTER
                      00306 
00CA   3000           00307                                 MOVLW   d'0'
00CB   00B2           00308                                 MOVWF   REMAINING_NUMBER
                      00309 
00CC   3014           00310                                 MOVLW   d'20'
00CD   0092           00311                                 MOVWF   CURRENT_ADDRESS
00CE   0084           00312                                 MOVWF   FSR                             
MPASM  5.35beta                       PROGRAM.ASM   4-25-2017  13:06:05         PAGE  7
Maze Solver

LOC  OBJECT CODE     LINE SOURCE TEXT
  VALUE

                      00313 
00CF   168B           00314                                 BSF             INTCON,T0IE     ;ENABLE TIMER INTERRUPT
                      00315 
00D0   3032           00316                                 MOVLW   d'50'
00D1   008E           00317                                 MOVWF   TIMER3
00D2   0181           00318                                 CLRF    TMR0
                      00319 
00D3   0009           00320                                 RETFIE
                      00321 
                      00322 ;-------------------------|
                      00323 ;END MAIN PROGRAM         |
                      00324 ;-------------------------| 
                      00325 
                      00326 
00D4   23BF           00327 BUTTONPRESS             CALL    DEBOUNCE_DELAY  ;CALLED WHEN ANY BUTTON IS PRESSED      
00D5   1E06           00328                                 BTFSS   PORTB, 4        ;checking if button 1 pressed
00D6   28DE           00329                                 GOTO    MOVE_BUTTON
00D7   1E86           00330                                 BTFSS   PORTB, 5        ;checking if button 2 pressed
00D8   28E1           00331                                 GOTO    CONFIRM_BUTTON
00D9   1F06           00332                                 BTFSS   PORTB, 6        ;checking if button 3 pressed
00DA   28F2           00333                                 GOTO    START_BUTTON    
00DB   1F86           00334                                 BTFSS   PORTB, 7        ;checking if button 4 pressed
00DC   2904           00335                                 GOTO    END_BUTTON
00DD   2913           00336                                 GOTO    RETURN_TO_PROGRAM
                      00337                                 
00DE   1D0F           00338 MOVE_BUTTON             BTFSS   SELECT, 2       ; if bit 2 of select is cleared, we are in the menu
00DF   292C           00339                                 GOTO    INCREMENT_POINTER ; used to navigate the menu
00E0   295D           00340                                 GOTO    MOVE_CURSOR_MAZE ;to navigate the cursor around the maze
                      00341 
00E1   1D0F           00342 CONFIRM_BUTTON  BTFSS   SELECT, 2       ; if bit 2 of select is cleared, we are in the menu
00E2   28E6           00343                                 GOTO    CHOOSE_MODE ; used to confirm the mode we are currently pointing
                             at
00E3   1C8F           00344                                 BTFSS   SELECT,1        ; SELECT = 110 --> DEFAULT MODE / ELSE --> OBSTA
                            CLE MODE OR MAZE MODE
00E4   29A1           00345                                 GOTO    PLACE_OBSTACLECHOOSE
00E5   29EF           00346                                 GOTO    INIT_MAZE ; we solve the maze directly in default mode
                      00347 
00E6   100B           00348 CHOOSE_MODE             BCF             INTCON, RBIF    ;WE CHECK WHICH OF THE MODES THE POINTER IS CURR
                            ENTLY POINTING TO
00E7   1C0F           00349                                 BTFSS   SELECT,0
00E8   28EB           00350                                 GOTO    S0
00E9   180F           00351                                 BTFSC   SELECT,0
00EA   28EF           00352                                 GOTO    S1
00EB   1C8F           00353 S0                              BTFSS   SELECT,1
00EC   28AC           00354                                 GOTO    MAZE_START
00ED   188F           00355                                 BTFSC   SELECT,1
00EE   2855           00356                                 GOTO    DEFAULT_START
00EF   1C8F           00357 S1                              BTFSS   SELECT,1
00F0   2886           00358                                 GOTO    OBSTACLE_START
00F1   2913           00359                                 GOTO    RETURN_TO_PROGRAM
                      00360 
                      00361 
00F2   1D0F           00362 START_BUTTON    BTFSS   SELECT, 2       ;IF THE START BUTTON IS PRESSED IN DEFAULT OR OBSTACLE MODE WE R
MPASM  5.35beta                       PROGRAM.ASM   4-25-2017  13:06:05         PAGE  8
Maze Solver

LOC  OBJECT CODE     LINE SOURCE TEXT
  VALUE

                            ETURN
00F3   2913           00363                                 GOTO    RETURN_TO_PROGRAM
00F4   1C0F           00364                                 BTFSS   SELECT, 0
00F5   2913           00365                                 GOTO    RETURN_TO_PROGRAM
                      00366                                 
00F6   1C80           00367                                 BTFSS   INDF,1  ;CHECK IF THE POSITION IS EMPTY
00F7   29E9           00368                                 GOTO    CANNOT_PLACE    ;IF NOT EMPTY RETURN
                      00369 
00F8   1A13           00370                                 BTFSC   OBSTACLE_COUNTER,4      ;BIT 4 IS SET THEN START POSITION HAS AL
                            READY BEEN PLACED
00F9   29E9           00371                                 GOTO    CANNOT_PLACE
                      00372 
00FA   231E           00373                                 CALL    letterS ;Print S
00FB   21DB           00374                                 CALL    RETURN_TO_PREV_POSITION
00FC   1186           00375                                 BCF     PORTB,3 ;GROUND RED LED
00FD   1613           00376                                 BSF             OBSTACLE_COUNTER,4      ;SET THAT START HAS BEEN PLACED
00FE   1500           00377                                 BSF             INDF, 2  ;SET THE ADDRESS AS CONTAINING THE STARTING POS
                            ITION
00FF   1080           00378                                 BCF             INDF, 1 ;SET THE ADDRESS AS NOT EMPTY
                      00379                                 
0100   0804           00380                                 MOVF    FSR,0
0101   00A8           00381                                 MOVWF   CURRENT_POSITION
0102   00AA           00382                                 MOVWF   STARTING_POSITION       ;SET CURRENT POSITION AS THE STARTING PO
                            SITION
                      00383                                 
0103   2915           00384                                 GOTO    CHECK_IF_DONE ;CHECK IF ALL ELEMENTS OF MAZE MODE HAVE BEEN PLAC
                            ED
                      00385 
0104   1D0F           00386 END_BUTTON              BTFSS   SELECT, 2 ;IF THE END BUTTON IS PRESSED IN DEFAULT OR OBSTACLE MODE WE R
                            ETURN
0105   2913           00387                                 GOTO    RETURN_TO_PROGRAM
0106   1C0F           00388                                 BTFSS   SELECT, 0
0107   2913           00389                                 GOTO    RETURN_TO_PROGRAM
                      00390 
0108   1C80           00391                                 BTFSS   INDF,1 ;CHECK IF THE POSITION IS EMPTY
0109   29E9           00392                                 GOTO    CANNOT_PLACE ;IF NOT EMPTY RETURN
                      00393 
010A   1A93           00394                                 BTFSC   OBSTACLE_COUNTER,5 ;BIT 5 IS SET WHEN END POSITION HAS ALREADY B
                            EEN PLACED
010B   29E9           00395                                 GOTO    CANNOT_PLACE
                      00396 
010C   22EC           00397                                 CALL    letterE ;PRINT E
010D   21DB           00398                                 CALL    RETURN_TO_PREV_POSITION
010E   1106           00399                                 BCF     PORTB,2 ;GROUND GREEN LED
010F   1693           00400                                 BSF             OBSTACLE_COUNTER,5 ;SET THAT END HAS BEEN PLACED
0110   1580           00401                                 BSF             INDF, 3 ; SET THE ADDRESS AS CONTAINING THE END POSITION
0111   1080           00402                                 BCF             INDF, 1 ; SET THE ADDRESS AS NOT EMPTY
                      00403                                 
0112   2915           00404                                 GOTO    CHECK_IF_DONE ;CHECK IF ALL ELEMENTS OF MAZE MODE HAVE BEEN PLAC
                            ED
                      00405         
0113   100B           00406 RETURN_TO_PROGRAM               BCF             INTCON, RBIF    ;RESET FLAGS
0114   0009           00407                                                 RETFIE
MPASM  5.35beta                       PROGRAM.ASM   4-25-2017  13:06:05         PAGE  9
Maze Solver

LOC  OBJECT CODE     LINE SOURCE TEXT
  VALUE

                      00408 
0115   1C13           00409 CHECK_IF_DONE   BTFSS   OBSTACLE_COUNTER,0 ;CHECK IF ALL 5 OBSTACLES HAVE BEEN PLACED
0116   2913           00410                                 GOTO    RETURN_TO_PROGRAM
0117   1D13           00411                                 BTFSS   OBSTACLE_COUNTER,2
0118   2913           00412                                 GOTO    RETURN_TO_PROGRAM
0119   1E13           00413                                 BTFSS   OBSTACLE_COUNTER,4 ;CHECK IF THE START POSITION HAS BEEN PLACED
011A   2913           00414                                 GOTO    RETURN_TO_PROGRAM
011B   1E93           00415                                 BTFSS   OBSTACLE_COUNTER,5 ;CHECK IF THE END POSITION HAS BEEN PLACED
011C   2913           00416                                 GOTO    RETURN_TO_PROGRAM
                      00417 
011D   082A           00418                                 MOVF    STARTING_POSITION,0
011E   00A8           00419                                 MOVWF   CURRENT_POSITION
011F   22BF           00420                                 CALL    MOVE_CURSOR_TO_CURRENT_POSITION
                      00421 
0120   29EF           00422                                 GOTO    INIT_MAZE ;IF ALL ELEMENTS HAVE BEEN PLACED, WE SOLVE THE MAZE
                      00423 
                      00424 
                      00425 ;---------------TIMER INTERRUPT CODE--------------------------------
0121   23A1           00426 timerInterrupt  CALL    POWERUPDELAY
0122   0B8E           00427                                 DECFSZ  TIMER3,F ;decrementing timer3 to get 2s delay
0123   292B           00428                                 GOTO    RETTIMER3
                      00429 
                      00430                                 ;INCREMENTING START POSITION
0124   3032           00431                                 MOVLW   d'50'
0125   008E           00432                                 MOVWF   TIMER3
0126   0181           00433                                 CLRF    TMR0
0127   1991           00434                                 BTFSC   ADDRESSING_COUNTER,3    ;IF ADDRESSING_COUNTER = 9 --> MOVE TO T
                            HE OTHER ROW
0128   1C11           00435                                 BTFSS   ADDRESSING_COUNTER,0
0129   2969           00436                                 GOTO    CURSOR_INCREMENT        
012A   2988           00437                                 GOTO    CURSOR_SWITCH_ROW               
                      00438                                 
012B   0009           00439 RETTIMER3       RETFIE
                      00440 ;------------------------------------------------------------------
                      00441 
                      00442 
                      00443 
                      00444 
                      00445 ;---------------INCREMENT POINTER CODE----------------------------
012C   1C0F           00446 INCREMENT_POINTER       BTFSS   SELECT,0
012D   2930           00447                                         GOTO    S00CHECKS1
012E   180F           00448                                         BTFSC   SELECT,0
012F   2934           00449                                         GOTO    S01CHECKS1
                      00450 
0130   1C8F           00451 S00CHECKS1              BTFSS   SELECT,1
0131   2937           00452                                 GOTO    POSITION1
0132   188F           00453                                 BTFSC   SELECT,1
0133   2943           00454                                 GOTO    POSITION2
                      00455 
0134   1C8F           00456 S01CHECKS1              BTFSS   SELECT,1
0135   2950           00457                                 GOTO    POSITION3
0136   2913           00458                                 GOTO    RETURN_TO_PROGRAM
                      00459 
MPASM  5.35beta                       PROGRAM.ASM   4-25-2017  13:06:05         PAGE 10
Maze Solver

LOC  OBJECT CODE     LINE SOURCE TEXT
  VALUE

                      00460 ;CLEARING CAN BE OPTIMIZED FURTHER IF NECESSARY
0137   300C           00461 POSITION1               MOVLW   b'01100' ;4AH IS THE LOCATION
0138   238F           00462                                 CALL    ET
                      00463                 
0139   300B           00464                                 MOVLW b'01011' ; 4 bits to jump address
013A   238F           00465                                 CALL ET 
013B   22D3           00466                                 CALL    charSp
                      00467 
                      00468 
013C   3008           00469                                 MOVLW b'01000' ; 00 IS THE LOCATION
013D   238F           00470                                 CALL ET
                      00471                 
013E   3004           00472                                 MOVLW b'00100' ; 4 bits to jump address
013F   238F           00473                                 CALL ET
                      00474 
0140   2337           00475                                 CALL    charStar;print star before DEFAULT
0141   148F           00476                                 BSF             SELECT,1
                      00477                                 
0142   2913           00478                                 GOTO    RETURN_TO_PROGRAM
                      00479 
                      00480 ;CLEARING CAN BE OPTIMIZED FURTHER IF NECESSARY
0143   3008           00481 POSITION2               MOVLW   b'01000' ; clearing position 1
0144   238F           00482                                 CALL    ET
                      00483                 
0145   3004           00484                                 MOVLW   b'00100' ; 4 bits to jump address
0146   238F           00485                                 CALL    ET
0147   22D3           00486                                 CALL    charSp          
                      00487 
                      00488 
0148   300C           00489                                 MOVLW b'01100' ; 40H IS THE LOCATION
0149   238F           00490                                 CALL ET
                      00491                 
014A   3000           00492                                 MOVLW b'00000' ; 4 bits to jump address
014B   238F           00493                                 CALL ET 
                      00494                                 
014C   2337           00495                                 CALL    charStar;print star before OBSTACLE     
                      00496 
014D   140F           00497                                 BSF             SELECT,0
014E   108F           00498                                 BCF             SELECT,1
014F   2913           00499                                 GOTO    RETURN_TO_PROGRAM
                      00500                                 
                      00501 
                      00502 ;CLEARING CAN BE OPTIMIZED FURTHER IF NECESSARY
0150   300C           00503 POSITION3               MOVLW b'01100' ; clearing position 2
0151   238F           00504                                 CALL ET
                      00505                 
0152   3000           00506                                 MOVLW   b'00000' ; clearing position 2
0153   238F           00507                                 CALL    ET      
0154   22D3           00508                                 CALL    charSp
                      00509 
0155   300C           00510                                 MOVLW   b'01100' ;4AH IS THE LOCATION
0156   238F           00511                                 CALL    ET
                      00512                 
MPASM  5.35beta                       PROGRAM.ASM   4-25-2017  13:06:05         PAGE 11
Maze Solver

LOC  OBJECT CODE     LINE SOURCE TEXT
  VALUE

0157   300B           00513                                 MOVLW b'01011' ; 4 bits to jump address
0158   238F           00514                                 CALL ET 
                      00515                                 
0159   2337           00516                                 CALL    charStar;print star before MAZE
015A   100F           00517                                 BCF             SELECT,0
015B   108F           00518                                 BCF             SELECT,1
015C   2913           00519                                 GOTO    RETURN_TO_PROGRAM
                      00520 
                      00521 ;---------------MOVE CURSOR CODE----------------------------
                      00522 
015D   180F           00523 MOVE_CURSOR_MAZE        BTFSC   SELECT,0        ;SELECT = 101 --> MAZE MODE
015E   2913           00524                                         GOTO    RETURN_TO_PROGRAM
015F   1C8F           00525                                         BTFSS   SELECT,1
0160   2962           00526                                         GOTO    MOVE_CURSOR_OBSTACLE    ;SELECT = 100 --> OBSTACLE MODE 
                            / SELECT = 110 --> DEFAULT MODE
0161   2913           00527                                         GOTO    RETURN_TO_PROGRAM
                      00528 ;-------OBSTACLE MODE RELATED:-------------------
0162   1D91           00529 MOVE_CURSOR_OBSTACLE    BTFSS   ADDRESSING_COUNTER, 3   ;IF BIT 3 IS SET, WE HAVE MOVED 8 POSITIONS WITH
                            IN A SINGLE ROW IN OBSTACLE MODE
0163   2969           00530                                                 GOTO    CURSOR_INCREMENT                ; --> IF WE ARE 
                            ON ROW0 WE NEED TO GO DOWN,
0164   082A           00531                                                 MOVF    STARTING_POSITION, 0    ; --> IF WE ARE ON ROW1 
                            WE ARE DONE
0165   00A8           00532                                                 MOVWF   CURRENT_POSITION
0166   1A11           00533                                                 BTFSC   ADDRESSING_COUNTER, 4   ;IF BIT 4 IS SET --> WE 
                            ARE ON ROW1 AND WE ARE DONE
0167   29EF           00534                                                 GOTO    INIT_MAZE                               ;IF BIT 
                            4 IS CLEAR --> WE ARE ON ROW0 AND NEED TO GO DOWN
0168   297D           00535                                                 GOTO    CURSOR_NEXTLINE
                      00536 
0169   1800           00537 CURSOR_INCREMENT                BTFSC INDF,0    ;CHECK WHICH ELEMENT IS ON THIS POSITION AND PRINT IT AG
                            AIN
016A   233C           00538                                                 CALL rectangle
016B   1880           00539                                                 BTFSC INDF,1
016C   2341           00540                                                 CALL empty
016D   1900           00541                                                 BTFSC INDF,2
016E   231E           00542                                                 CALL letterS
016F   1980           00543                                                 BTFSC INDF,3
0170   22EC           00544                                                 CALL letterE    
0171   1E11           00545                                                 BTFSS   ADDRESSING_COUNTER, 4 ;IF BIT4 OF ADDRESSING COU
                            NTER IS SET, WE ARE IN THE SECOND LINE AND MOVING BACKWARDS
0172   2177           00546                                                 CALL    INCREMENT               ;MOVE TO THE RIGHT      
                                                    
0173   1A11           00547                                                 BTFSC   ADDRESSING_COUNTER, 4
0174   217A           00548                                                 CALL    DECREMENT               ;MOVE TO THE LEFT       
                                    
Message[305]: Using default destination of 1 (file).
0175   0A91           00549                                                 INCF    ADDRESSING_COUNTER      ;INCREMENT HOW MANY POSI
                            TIONS WE HAVE MOVED
0176   2913           00550                                                 GOTO    RETURN_TO_PROGRAM
                      00551 
Message[305]: Using default destination of 1 (file).
0177   0A92           00552 INCREMENT                               INCF    CURRENT_ADDRESS
MPASM  5.35beta                       PROGRAM.ASM   4-25-2017  13:06:05         PAGE 12
Maze Solver

LOC  OBJECT CODE     LINE SOURCE TEXT
  VALUE

Message[305]: Using default destination of 1 (file).
0178   0A84           00553                                                 INCF    FSR     ;INCREMENT CURRENT LOCATION WHEN MOVING 
                            TO THE RIGHT
0179   0008           00554                                                 RETURN
                      00555 
Message[305]: Using default destination of 1 (file).
017A   0392           00556 DECREMENT                               DECF    CURRENT_ADDRESS
Message[305]: Using default destination of 1 (file).
017B   0384           00557                                                 DECF    FSR ;DECREMENT CURRENT LOCATION WHEN MOVING TO T
                            HE LEFT
017C   0008           00558                                                 RETURN
                      00559 
017D   300C           00560 CURSOR_NEXTLINE                 MOVLW   b'01100' ;move to ROW1 COLUMN 8
017E   238F           00561                                                 CALL    ET
017F   3008           00562                                                 MOVLW   b'01000'
0180   238F           00563                                                 CALL    ET
0181   23D4           00564                                                 CALL    CURSOR_MOVELEFT ;SET THE CURSOR TO MOVE FROM RIG
                            HT TO LEFT
0182   3010           00565                                                 MOVLW   b'10000'
0183   0091           00566                                                 MOVWF   ADDRESSING_COUNTER      ;SET BIT 4 AS A SIGN THA
                            T WE ARE ON ROW1
0184   3026           00567                                                 MOVLW   d'38'   ;38 IS THE LOCATION OF ROW1 COLUMN 8
0185   0092           00568                                                 MOVWF   CURRENT_ADDRESS
0186   0084           00569                                                 MOVWF   FSR             ;SET IT AS OUR CURRENT ADDRESS
0187   2913           00570                                                 GOTO    RETURN_TO_PROGRAM
                      00571 
                      00572 ;------------------MAZE MODE RELATED---------------------
                      00573 
0188   1A11           00574 CURSOR_SWITCH_ROW               BTFSC   ADDRESSING_COUNTER,4 ;IF BIT4 IS SET WE ARE ON ROW1 AND NEED TO 
                            GO UP
0189   2996           00575                                                 GOTO    SWITCH_UP                        ;OTHERWISE WE A
                            RE ON ROW0 AND NEED TO GO DOWN
018A   298B           00576                                                 GOTO    SWITCH_DOWN
                      00577 
018B   300C           00578 SWITCH_DOWN                             MOVLW   b'01100' ; move to ROW1 COLUMN 9
018C   238F           00579                                                 CALL    ET
018D   3009           00580                                                 MOVLW   b'01001'
018E   238F           00581                                                 CALL    ET
018F   23D4           00582                                                 CALL    CURSOR_MOVELEFT ;SET THE CURSOR TO MOVE FROM RIG
                            HT TO LEFT
0190   3010           00583                                                 MOVLW   b'10000'
0191   0091           00584                                                 MOVWF   ADDRESSING_COUNTER      ;SET BIT 4 AS A SIGN THA
                            T WE ARE ON ROW1
0192   3027           00585                                                 MOVLW   d'39' ;39 IS THE LOCATION OF ROW1 COLUMN 9
0193   0092           00586                                                 MOVWF   CURRENT_ADDRESS
0194   0084           00587                                                 MOVWF   FSR             ;ADJUST FSR TO OUR CURRENT ADDRE
                            SS
0195   2913           00588                                                 GOTO    RETURN_TO_PROGRAM
                      00589 
0196   3008           00590 SWITCH_UP                               MOVLW   b'01000' ;move to ROW0 COLUMN 0
0197   238F           00591                                                 CALL    ET
0198   3000           00592                                                 MOVLW   b'00000'
0199   238F           00593                                                 CALL    ET
MPASM  5.35beta                       PROGRAM.ASM   4-25-2017  13:06:05         PAGE 13
Maze Solver

LOC  OBJECT CODE     LINE SOURCE TEXT
  VALUE

019A   23D9           00594                                                 CALL    CURSOR_MOVERIGHT ;SET THE CURSOR TO MOVE FROM LE
                            FT TO RIGHT
019B   3000           00595                                                 MOVLW   b'00000'
019C   0091           00596                                                 MOVWF   ADDRESSING_COUNTER ;CLEAR BIT 4 AS A SIGN THAT W
                            E ARE ON ROW0
019D   3014           00597                                                 MOVLW   d'20' ;20 IS THE LOCATION OF ROW0 COLUMN 0
019E   0092           00598                                                 MOVWF   CURRENT_ADDRESS
019F   0084           00599                                                 MOVWF   FSR             ;ADJUST FSR TO OUR CURRENT ADDRE
                            SS
01A0   2913           00600                                                 GOTO    RETURN_TO_PROGRAM
                      00601 
                      00602 ;MOVE_CURSOR_MAZEMODE
                      00603 ;-----------------------------------------------------------------------------  
                      00604 
                      00605 ;---------------PLACE OBSTACLES CODE----------------------------
                      00606 
01A1   1C0F           00607 PLACE_OBSTACLECHOOSE    BTFSS   SELECT,0        ;SELECT = 100 --> OBSTACLE MODE / SELECT = 101 --> MAZE 
                            MODE
01A2   29A4           00608                                                 GOTO    PLACE_OBSTACLEMODE
01A3   29B8           00609                                                 GOTO    PLACE_MAZEMODE
                      00610 
                      00611 ;---------------PLACE OBSTACLES IN OBSTACLE MODE:---------------
01A4   21EB           00612 PLACE_OBSTACLEMODE      CALL    PLACE_OBSTACLE  ;PLACE OBSTACLE IN CURRENT POSITION
01A5   23B7           00613                                         CALL    BUZZ_SHORT ;BUZZ SOUND
Message[305]: Using default destination of 1 (file).
01A6   0A93           00614                                         INCF    OBSTACLE_COUNTER        ;ADJUST NUMBER OF PLACED OBSTACL
                            ES                                                                      
01A7   1913           00615                                         BTFSC   OBSTACLE_COUNTER,2 ;CHECK IF 5 OBSTACLES HAVE BEEN PLACE
                            D
01A8   1C13           00616                                         BTFSS   OBSTACLE_COUNTER,0
01A9   29AD           00617                                         GOTO    ADJUST_NEXT_POSITION ; ADJUST CURSOR TO KEEP PLACING OBS
                            TACLES
01AA   082A           00618                                         MOVF    STARTING_POSITION, 0
01AB   00A8           00619                                         MOVWF   CURRENT_POSITION
01AC   29EF           00620                                         GOTO    INIT_MAZE       ;IF WE HAVE PLACE 5 OBSTACLES WE SOLVE T
                            HE MAZE
                      00621 
01AD   1D91           00622 ADJUST_NEXT_POSITION            BTFSS   ADDRESSING_COUNTER, 3   ; IF IT IS SET, WE ARE ON ROW0 COLUMN9, 
                            OR ROW1 COLUMN0
01AE   29B2           00623                                                         GOTO    INCREMENT_NEXT_POSITION 
01AF   1A11           00624                                                         BTFSC   ADDRESSING_COUNTER, 4   ; IF IT IS SET, 
                            WE ARE ON ROW1 COLUMN0, ELSE WE ARE ON ROW0 COLUMN9
01B0   29EF           00625                                                         GOTO    INIT_MAZE
01B1   297D           00626                                                         GOTO    CURSOR_NEXTLINE
                      00627                                                         
01B2   1E11           00628 INCREMENT_NEXT_POSITION         BTFSS   ADDRESSING_COUNTER, 4 ;IF BIT4 OF ADDRESSING COUNTER IS SET, WE 
                            ARE IN ROW1 AND NEED TO MOVE BACKWARDS
01B3   2177           00629                                                         CALL    INCREMENT                 
01B4   1A11           00630                                                         BTFSC   ADDRESSING_COUNTER, 4
01B5   217A           00631                                                         CALL    DECREMENT
Message[305]: Using default destination of 1 (file).
01B6   0A91           00632                                                         INCF    ADDRESSING_COUNTER
01B7   2913           00633                                                         GOTO    RETURN_TO_PROGRAM
MPASM  5.35beta                       PROGRAM.ASM   4-25-2017  13:06:05         PAGE 14
Maze Solver

LOC  OBJECT CODE     LINE SOURCE TEXT
  VALUE

                      00634 
                      00635 ;-------------PLACE OBSTACLES IN MAZE MODE:----------------
01B8   1C80           00636 PLACE_MAZEMODE          BTFSS   INDF,1  ;CHECK IF THE POSITION IS EMPTY
01B9   29E9           00637                                         GOTO    CANNOT_PLACE    ;IF NOT EMPTY RETURN
01BA   1913           00638                                         BTFSC   OBSTACLE_COUNTER,2 ;CHECK IF 5 OBSTACLES HAVE BEEN PLACE
                            D
01BB   1C13           00639                                         BTFSS   OBSTACLE_COUNTER,0
01BC   29BE           00640                                         GOTO    PLACE_OBS_MAZEMODE
01BD   29E9           00641                                         GOTO    CANNOT_PLACE    
                      00642 
01BE   21EB           00643 PLACE_OBS_MAZEMODE      CALL    PLACE_OBSTACLE
Message[305]: Using default destination of 1 (file).
01BF   0A93           00644                                         INCF    OBSTACLE_COUNTER        ;INCREMENT OBSTACLE COUNTER
                      00645                                         ;ADJUST REMAINING:
                      00646                                         ; MOVE TO THE REMAINING NB OF OBSTACLES POSITION
01C0   300C           00647                                         MOVLW   b'01100'
01C1   238F           00648                                         CALL    ET
01C2   300F           00649                                         MOVLW   b'01111'
01C3   238F           00650                                         CALL    ET
                      00651                                         ;WRITE NUMBER
                      00652                                         ;WE START WITH REMAINING_NUMBER = 0
                      00653                                         ;EACH TIME WE PLACE AN OBSTACLE WE SHIFT IT TO THE LEFT
                      00654                                         ;HERE WE CHECK THE LEFTMOST POSITION THAT IS SET TO SEE HOW MANY
                             OBSTACLES HAVE BEEN PLACED
01C4   1DB2           00655                                         BTFSS   REMAINING_NUMBER,3
01C5   29C9           00656                                         GOTO    REMAINING_CASE1
01C6   2350           00657                                         CALL    nb0
01C7   21DB           00658                                         CALL    RETURN_TO_PREV_POSITION
01C8   29E7           00659                                         GOTO    PLACE_MAZEMODE_RETURN
                      00660 
01C9   1D32           00661 REMAINING_CASE1         BTFSS   REMAINING_NUMBER,2
01CA   29CE           00662                                         GOTO    REMAINING_CASE2
01CB   2355           00663                                         CALL    nb1
01CC   21DB           00664                                         CALL    RETURN_TO_PREV_POSITION
01CD   29E7           00665                                         GOTO    PLACE_MAZEMODE_RETURN
                      00666 
01CE   1CB2           00667 REMAINING_CASE2         BTFSS   REMAINING_NUMBER,1
01CF   29D3           00668                                         GOTO    REMAINING_CASE3
01D0   235A           00669                                         CALL    nb2
01D1   21DB           00670                                         CALL    RETURN_TO_PREV_POSITION
01D2   29E7           00671                                         GOTO    PLACE_MAZEMODE_RETURN
                      00672 
01D3   1C32           00673 REMAINING_CASE3         BTFSS   REMAINING_NUMBER,0
01D4   29D8           00674                                         GOTO    REMAINING_CASE4
01D5   235F           00675                                         CALL    nb3
01D6   21DB           00676                                         CALL    RETURN_TO_PREV_POSITION
01D7   29E7           00677                                         GOTO    PLACE_MAZEMODE_RETURN
                      00678 
01D8   2364           00679 REMAINING_CASE4         CALL    nb4
01D9   21DB           00680                                         CALL    RETURN_TO_PREV_POSITION
01DA   29E7           00681                                         GOTO    PLACE_MAZEMODE_RETURN
                      00682 
                      00683                                         ;RETURN TO PREVIOUS POSITION
MPASM  5.35beta                       PROGRAM.ASM   4-25-2017  13:06:05         PAGE 15
Maze Solver

LOC  OBJECT CODE     LINE SOURCE TEXT
  VALUE

01DB   1E11           00684 RETURN_TO_PREV_POSITION         BTFSS   ADDRESSING_COUNTER, 4 ;IF BIT4 = 1 --> WE ARE IN ROW 1, ELSE WE 
                            ARE IN ROW 0
01DC   3008           00685                                                         MOVLW   b'01000'          
01DD   1A11           00686                                                         BTFSC   ADDRESSING_COUNTER, 4
01DE   300C           00687                                                         MOVLW   b'01100'
01DF   238F           00688                                                         CALL    ET
01E0   1E11           00689                                                         BTFSS   ADDRESSING_COUNTER, 4
01E1   3014           00690                                                         MOVLW   d'20'   ;ROW 0 : D'20' to d'29'
01E2   1A11           00691                                                         BTFSC   ADDRESSING_COUNTER, 4
01E3   301E           00692                                                         MOVLW   d'30'   ;ROW 1 : d'30' to d'39'
01E4   0204           00693                                                         SUBWF   FSR,0   ; ADDRESS REGISTER - VALUE IN W 
                            = OFFSET
01E5   238F           00694                                                         CALL    ET      
01E6   0008           00695                                                         RETURN                                  
                      00696 
01E7   0DB2           00697 PLACE_MAZEMODE_RETURN           RLF             REMAINING_NUMBER,1 ;ROTATE IT ONCE TO THE LEFT TO SELECT
                             CORRECT CASE FOR REMAINING NUMBER
01E8   2915           00698                                                         GOTO    CHECK_IF_DONE
                      00699 
01E9   23B7           00700 CANNOT_PLACE            CALL    BUZZ_SHORT      ;BUZZ SOUND
01EA   2913           00701                                         GOTO    RETURN_TO_PROGRAM
                      00702 
                      00703 
01EB   1400           00704 PLACE_OBSTACLE          BSF             INDF, 0 ;SET THE ADDRESS AS CONTAINING AN OBSTACLE
01EC   1080           00705                                         BCF             INDF, 1 ;SET THE ADDRESS AS NOT EMPTY
01ED   233C           00706                                         CALL    rectangle
01EE   0008           00707                                         RETURN
                      00708 
                      00709 
                      00710 ;---------------MAZE SOLVING ALGORITHM----------------------------
                      00711 
01EF   23C5           00712 INIT_MAZE               CALL    CLEARDISPLAY ;CLEAR THE DISPLAY
01F0   1106           00713                                 BCF             PORTB,2 ;TURN OFF GREEN LED
01F1   1186           00714                                 BCF             PORTB,3 ;TURN OFF RED LED
01F2   23E7           00715                                 CALL    INDA    ; PRINT THE MAZE
01F3   236E           00716                                 CALL    NEWLINE
01F4   23EC           00717                                 CALL    INDA1
                      00718 
                      00719                                 ;--PRINT ITR
01F5   3008           00720                                 MOVLW   b'01000'
01F6   238F           00721                                 CALL    ET
01F7   300B           00722                                 MOVLW   b'01011'
01F8   238F           00723                                 CALL    ET
01F9   2332           00724                                 CALL    letterI
01FA   2305           00725                                 CALL    letterT
01FB   22DD           00726                                 CALL    letterR
                      00727                                 ;--PRINT ITR NUMBER
01FC   3009           00728                                 MOVLW   d'9'
01FD   0229           00729                                 SUBWF   ITERATIONS_COUNTER,0    ; IF ITERATIONS < 10, GOTO SMALLER
01FE   1903           00730                                 BTFSC   STATUS,Z                                ; OTHERWISE GOTO GREATER
01FF   2A04           00731                                 GOTO    GREATER 
0200   1803           00732                                 BTFSC   STATUS,C                                
0201   2A04           00733                                 GOTO    GREATER
MPASM  5.35beta                       PROGRAM.ASM   4-25-2017  13:06:05         PAGE 16
Maze Solver

LOC  OBJECT CODE     LINE SOURCE TEXT
  VALUE

0202   1C03           00734                                 BTFSS   STATUS,C
0203   2A0A           00735                                 GOTO    SMALLER
                      00736 
0204   2355           00737 GREATER                 CALL    nb1             ;PRINT 1 AS THE FIRST DIGIT SINCE ITR >= 10
0205   3013           00738                                 MOVLW   b'10011'
0206   238F           00739                                 CALL    ET
0207   3009           00740                                 MOVLW   d'9'
0208   0229           00741                                 SUBWF   ITERATIONS_COUNTER,0 ;SUBTRACT 9 FROM THE NUMBER OF ITERATIONS S
                            O THAT 0 <= 2ND DIGIT <= 9
0209   2A0F           00742                                 GOTO    PRINT_ITERATIONS
                      00743 
020A   2350           00744 SMALLER                 CALL    nb0             ;PRINT 0 AS THE FIRST DIGIT SINCE ITR < 10
020B   3013           00745                                 MOVLW   b'10011'        ;HIGHER ORDER BITS FOR THE LCD TO PRINT A NUMBER
020C   238F           00746                                 CALL    ET
020D   0A29           00747                                 INCF    ITERATIONS_COUNTER,0 ;MOVE TO W THE NUMBER OF ITERATIONS TO THAT
                             THE LCD PRINTS THE CORRECT NUMBER
                      00748                                                                                          ;WE PASS IT INC
                            REMENTED SINCE WE NEED THE COUNT TO START FROM 1 INSTEAD OF 0
020E   2A0F           00749                                 GOTO    PRINT_ITERATIONS
                      00750                         
020F   3810           00751 PRINT_ITERATIONS        IORLW   b'00010000'     ;MOVE THE LOWER ORDER BITS TO THE LCD SO THAT THE 2ND DI
                            GIT IS PRINTED
0210   238F           00752                                         CALL    ET
                      00753                                 
0211   22BF           00754 SOLVE_MAZE              CALL    MOVE_CURSOR_TO_CURRENT_POSITION ;MOVE CURSOR TO START
0212   23CF           00755                                 CALL    CLEAR_BLINKING  ;STOP BLINKING
0213   2395           00756                                 CALL    LONGDELAY
                      00757                                                                                 
                      00758                                 
                      00759 
0214   3001           00760 CHECK_RIGHT                     MOVLW   b'0001'
0215   00AB           00761                                         MOVWF   PREVIOUS_COMMAND
                      00762 
                      00763                                         ;-------------CHECKING BOUNDS----------------
                      00764 
                      00765                                         ;TOP RIGHT
0216   301D           00766                                         MOVLW   d'29'
0217   0228           00767                                         SUBWF   CURRENT_POSITION, 0
                      00768 
                      00769                                         ;IF EQUAL GOTO CHECK LEFT
0218   1903           00770                                         BTFSC   STATUS, Z
0219   2A28           00771                                         GOTO    CHECK_LEFT
                      00772                                         
                      00773                                         ;BOT RIGHT
021A   3027           00774                                         MOVLW   d'39'
021B   0228           00775                                         SUBWF   CURRENT_POSITION, 0                                     
                      00776 
                      00777                                         ;IF EQUAL GOTO CHECK LEFT
021C   1903           00778                                         BTFSC   STATUS, Z
021D   2A28           00779                                         GOTO    CHECK_LEFT                                      
                      00780                                         ;--------------------------------------------
                      00781 
021E   23D9           00782                                         CALL    CURSOR_MOVERIGHT        ;SETTING CURSOR MOVING DIRECTION
MPASM  5.35beta                       PROGRAM.ASM   4-25-2017  13:06:05         PAGE 17
Maze Solver

LOC  OBJECT CODE     LINE SOURCE TEXT
  VALUE

                      00783 
                      00784                                         ;---------CHECKING POSITION TO RIGHT OF CURRENT POSITION--------
                      00785                                         
021F   3001           00786                                         MOVLW   b'1'
0220   0728           00787                                         ADDWF   CURRENT_POSITION,0      ;SAVING CURR_POS + 1 IN W
0221   0084           00788                                         MOVWF   FSR
                      00789 
                      00790                                         ;CHECK IF THIS REG CONTENT IS END
0222   1980           00791                                         BTFSC   INDF, 3
0223   2A64           00792                                         GOTO    SOLVED
                      00793 
                      00794                                         ;CHECKING IF CURRENT POSITION IS VISITED
0224   1A00           00795                                         BTFSC   INDF, 4
0225   2A28           00796                                         GOTO    CHECK_LEFT
                      00797 
                      00798                                         ;CHECK IF THIS REG CONTENT IS EMPTY
0226   1880           00799                                         BTFSC   INDF, 1
0227   2A92           00800                                         GOTO    EMPTY_CASE
                      00801 
                      00802                                         
0228   3002           00803 CHECK_LEFT                      MOVLW   b'0010'
0229   00AB           00804                                         MOVWF   PREVIOUS_COMMAND
                      00805 
                      00806                                         ;-------------CHECKING BOUNDS----------------
                      00807 
                      00808                                         ;TOP LEFT
022A   3014           00809                                         MOVLW   d'20'
022B   0228           00810                                         SUBWF   CURRENT_POSITION, 0
                      00811 
                      00812                                         ;IF EQUAL GOTO CHECK UP
022C   1903           00813                                         BTFSC   STATUS, Z
022D   2A3C           00814                                         GOTO    CHECK_UP
                      00815                                         
                      00816                                         ;BOT LEFT
022E   301E           00817                                         MOVLW   d'30'
022F   0228           00818                                         SUBWF   CURRENT_POSITION, 0                                     
                      00819 
                      00820                                         ;IF EQUAL GOTO CHECK UP
0230   1903           00821                                         BTFSC   STATUS, Z
0231   2A3C           00822                                         GOTO    CHECK_UP                                        
                      00823                                         ;--------------------------------------------           
                      00824                         
0232   23D4           00825                                         CALL    CURSOR_MOVELEFT ;SETTING CURSOR MOVING DIRECTION
                      00826 
                      00827                                         ;---------CHECKING POSITION TO LEFT OF CURRENT POSITION--------
                      00828                                         
0233   3001           00829                                         MOVLW   b'1'
0234   0228           00830                                         SUBWF   CURRENT_POSITION,0      ;SAVING CURR_POS + 1 IN W
0235   0084           00831                                         MOVWF   FSR
                      00832 
                      00833                                         ;CHECK IF THIS REG CONTENT IS END
0236   1980           00834                                         BTFSC   INDF, 3
0237   2A64           00835                                         GOTO    SOLVED
MPASM  5.35beta                       PROGRAM.ASM   4-25-2017  13:06:05         PAGE 18
Maze Solver

LOC  OBJECT CODE     LINE SOURCE TEXT
  VALUE

                      00836 
                      00837                                         ;CHECKING IF CURRENT POSITION IS VISITED
0238   1A00           00838                                         BTFSC   INDF, 4
0239   2A3C           00839                                         GOTO    CHECK_UP
                      00840 
                      00841                                         ;CHECK IF THIS REG CONTENT IS EMPTY
023A   1880           00842                                         BTFSC   INDF, 1
023B   2A92           00843                                         GOTO    EMPTY_CASE
                      00844 
                      00845 
023C   3004           00846 CHECK_UP                        MOVLW   b'0100'
023D   00AB           00847                                         MOVWF   PREVIOUS_COMMAND
                      00848 
                      00849                                         ;-------------CHECKING BOUNDS----------------
023E   23D9           00850                                         CALL    CURSOR_MOVERIGHT        ;SETTING CURSOR MOVING DIRECTION
                      00851 
                      00852                                         ;IF FIRST ROW, GOTO CHECK_DOWN
023F   301E           00853                                         MOVLW   d'30'
0240   0228           00854                                         SUBWF   CURRENT_POSITION, 0
0241   1903           00855                                         BTFSC   STATUS, Z
0242   2A46           00856                                         GOTO    ROW2
0243   1803           00857                                         BTFSC   STATUS, C
0244   2A46           00858                                         GOTO    ROW2
0245   2A50           00859                                         GOTO    CHECK_DOWN
                      00860 
0246                  00861 ROW2                            ;IF SECOND ROW, CHECK UP
0246   300A           00862                                         MOVLW   d'10'
0247   0228           00863                                         SUBWF   CURRENT_POSITION, 0
0248   0084           00864                                         MOVWF   FSR
                      00865                                         
                      00866                                         ;CHECK IF THIS REG CONTENT IS END
0249   1980           00867                                         BTFSC   INDF, 3
024A   2A64           00868                                         GOTO    SOLVED
                      00869 
                      00870                                         ;CHECKING IF CURRENT POSITION IS VISITED
024B   1A00           00871                                         BTFSC   INDF, 4
024C   2A50           00872                                         GOTO    CHECK_DOWN
                      00873 
                      00874                                         ;CHECK IF THIS REG CONTENT IS EMPTY
024D   1880           00875                                         BTFSC   INDF, 1
024E   2A92           00876                                         GOTO    EMPTY_CASE
024F   2A50           00877                                         GOTO    CHECK_DOWN
                      00878 
0250   3008           00879 CHECK_DOWN                      MOVLW   b'1000'
0251   00AB           00880                                         MOVWF   PREVIOUS_COMMAND
                      00881 
0252   23D9           00882                                         CALL    CURSOR_MOVERIGHT        ;SETTING CURSOR MOVING DIRECTION
                      00883 
                      00884                                         ;-------------CHECKING BOUNDS----------------
                      00885                                         ;IF SECOND ROW, GOTO BLOCK_CURRENTPOSITION
0253   301D           00886                                         MOVLW   d'29'
0254   0228           00887                                         SUBWF   CURRENT_POSITION, 0
0255   1903           00888                                         BTFSC   STATUS, Z
MPASM  5.35beta                       PROGRAM.ASM   4-25-2017  13:06:05         PAGE 19
Maze Solver

LOC  OBJECT CODE     LINE SOURCE TEXT
  VALUE

0256   2A5A           00889                                         GOTO    ROW1
0257   1C03           00890                                         BTFSS   STATUS, C
0258   2A5A           00891                                         GOTO    ROW1
0259   2A7E           00892                                         GOTO    BLOCK_CURRENTPOSITION
                      00893                                         
025A                  00894 ROW1                            ;IF FIRST ROW, CHECK DOWN
025A   300A           00895                                         MOVLW   d'10'
025B   0728           00896                                         ADDWF   CURRENT_POSITION, 0
025C   0084           00897                                         MOVWF   FSR
                      00898                                         
                      00899                                         ;CHECK IF THIS REG CONTENT IS END
025D   1980           00900                                         BTFSC   INDF, 3
025E   2A64           00901                                         GOTO    SOLVED
                      00902 
                      00903                                         ;CHECKING IF CURRENT POSITION IS VISITED
025F   1A00           00904                                         BTFSC   INDF, 4
0260   2A7E           00905                                         GOTO    BLOCK_CURRENTPOSITION
                      00906 
                      00907                                         ;CHECK IF THIS REG CONTENT IS EMPTY
0261   1880           00908                                         BTFSC   INDF, 1
0262   2A92           00909                                         GOTO    EMPTY_CASE
0263   2A7E           00910                                         GOTO    BLOCK_CURRENTPOSITION
                      00911 
0264   23D9           00912 SOLVED                          CALL    CURSOR_MOVERIGHT ;SET THE CURSOR TO MOVE FROM LEFT TO RIGHT TO P
                            RINT CORRECTLY
0265   2373           00913                                         CALL    PRINTPATH       ;PRINT "PATH"
0266   2337           00914                                         CALL    charStar        ;PRINT "*"
0267   1506           00915                                         BSF             PORTB,2         ;TURN ON GREEN LED
0268   239B           00916                                         CALL    LONGER_DELAY    ;DELAY
0269   1106           00917                                         BCF             PORTB,2         ;TURN OFF GREEN LED
026A   23C5           00918                                         CALL    CLEARDISPLAY    ;CLEAR DISPLAY
026B   23DE           00919                                         CALL    CLEAR_REGISTERS ;CLEAR REGISTERS FROM THE CONTENTS OF TH
                            E MAZE
026C   018F           00920                                         CLRF    SELECT                  ;CLEAR SELECT AND SET IT TO "010
                            " WHICH CORRESPONDS TO THE MENU
026D   3002           00921                                         MOVLW   b'10'
026E   008F           00922                                         MOVWF   SELECT
026F   01A9           00923                                         CLRF    ITERATIONS_COUNTER      ;CLEAR THE NUMBER OF ITERATIONS
0270   2832           00924                                         GOTO    MENU
                      00925                                         
                      00926 
0271   23D9           00927 NOPATH                          CALL    CURSOR_MOVERIGHT        ;SET THE CURSOR TO MOVE FROM LEFT TO RIG
                            HT TO PRINT CORRECTLY
0272   2373           00928                                         CALL    PRINTPATH       ;PRINT "PATH"
0273   232D           00929                                         CALL    letterX         ;PRINT "X"
0274   1586           00930                                         BSF             PORTB,3         ;TURN ON RED LED
0275   23B3           00931                                         CALL    BUZZ_LONG
0276   1186           00932                                         BCF             PORTB,3         ;TURN OFF RED LED
0277   23C5           00933                                         CALL    CLEARDISPLAY    ;CLEAR DISPLAY
0278   23DE           00934                                         CALL    CLEAR_REGISTERS ;CLEAR REGISTERS FROM THE CONTENTS OF TH
                            E MAZE
0279   018F           00935                                         CLRF    SELECT  ;CLEAR SELECT AND SET IT TO "010" WHICH CORRESPO
                            NDS TO THE MENU
MPASM  5.35beta                       PROGRAM.ASM   4-25-2017  13:06:05         PAGE 20
Maze Solver

LOC  OBJECT CODE     LINE SOURCE TEXT
  VALUE

027A   3002           00936                                         MOVLW   b'10'
027B   008F           00937                                         MOVWF   SELECT
027C   01A9           00938                                         CLRF    ITERATIONS_COUNTER      ;CLEAR THE NUMBER OF ITERATIONS
027D   2832           00939                                         GOTO    MENU
                      00940 
027E   0828           00941 BLOCK_CURRENTPOSITION   MOVF    CURRENT_POSITION, 0
027F   022A           00942                                                 SUBWF   STARTING_POSITION, 0    ;CHECK IF CURRENT POSITI
                            ON = STARTING POSITION
0280   1903           00943                                                 BTFSC   STATUS, Z       ;IF THE STARTING POSITION IS BLO
                            CKED --> NO PATH
0281   2A71           00944                                                 GOTO    NOPATH
                      00945 
                      00946                                                 ;INCREMENTING ITERATIONS COUNT                          
Message[305]: Using default destination of 1 (file).
0282   0AA9           00947                                                 INCF    ITERATIONS_COUNTER
                      00948 
0283   0828           00949                                                 MOVF    CURRENT_POSITION,0
0284   0084           00950                                                 MOVWF   FSR
0285   1400           00951                                                 BSF             INDF,0  ;SET CURRENT POSITION AS CONTAIN
                            ING AN OBSTACLE
0286   1080           00952                                                 BCF             INDF,1  ;SET IT AS NOT EMPTY
                      00953 
                      00954                                                 ;CLEAR VISITED FLAG
0287   3014           00955                                                 MOVLW   d'20' ;INITIALIZE POINTER
0288   0084           00956                                                 MOVWF   FSR
0289   1200           00957 NEXT                                    BCF             INDF,4
Message[305]: Using default destination of 1 (file).
028A   0A84           00958                                                 INCF    FSR
028B   3028           00959                                                 MOVLW   d'40'
028C   0204           00960                                                 SUBWF   FSR,0
028D   1D03           00961                                                 BTFSS   STATUS,Z
028E   2A89           00962                                                 GOTO    NEXT
028F   082A           00963                                                 MOVF    STARTING_POSITION,0
0290   00A8           00964                                                 MOVWF   CURRENT_POSITION
0291   29EF           00965                                                 GOTO    INIT_MAZE
                      00966 
0292                  00967 EMPTY_CASE                      ;Incrementing cursor position
0292   22A1           00968                                         CALL    INCREMENT_CURSOR
                      00969 
0293   182B           00970                                         BTFSC   PREVIOUS_COMMAND, 0
0294   22A8           00971                                         CALL    INCREMENT_POSITION_RIGHT
0295   18AB           00972                                         BTFSC   PREVIOUS_COMMAND, 1
0296   22AB           00973                                         CALL    INCREMENT_POSITION_LEFT
0297   192B           00974                                         BTFSC   PREVIOUS_COMMAND, 2
0298   22AE           00975                                         CALL    INCREMENT_POSITION_UP
0299   19AB           00976                                         BTFSC   PREVIOUS_COMMAND, 3
029A   22B2           00977                                         CALL    INCREMENT_POSITION_DOWN
                      00978 
                      00979                                         ;Printing star?
029B   2337           00980                                         CALL    charStar
029C   2395           00981                                         CALL    LONGDELAY
                      00982                                         
                      00983                                         ;LABELLING CURRENT POSITION AS VISITED
MPASM  5.35beta                       PROGRAM.ASM   4-25-2017  13:06:05         PAGE 21
Maze Solver

LOC  OBJECT CODE     LINE SOURCE TEXT
  VALUE

029D   0828           00984                                         MOVF    CURRENT_POSITION,0      ;MOVING CURRENT_POS CONTENT TO W
029E   0084           00985                                         MOVWF   FSR
029F   1600           00986                                         BSF             INDF, 4 ;SETTING CUR_POS REGISTER AS VISITED
                      00987 
02A0   2A11           00988                                         GOTO    SOLVE_MAZE
                      00989 
                      00990 ;THIS FUNCTION PRINTS THE OBJECT IN THE CURRENT POSITION AGAIN TO INCREMENT THE CURSOR 
02A1   0828           00991 INCREMENT_CURSOR                MOVF    CURRENT_POSITION,0      ;MOVING CURRENT_POS CONTENT TO W
02A2   0084           00992                                                 MOVWF   FSR
02A3   1E00           00993                                                 BTFSS   INDF, 4
02A4   22B6           00994                                                 CALL    CHECK_INDF_PRINT  ;CURSOR INCREMENTED BY PRINTIN
                            G CUR_POS IN CUR_POS
02A5   1A00           00995                                                 BTFSC   INDF, 4
02A6   2337           00996                                                 CALL    charStar
02A7   0008           00997                                                 RETURN
                      00998 
02A8   3001           00999 INCREMENT_POSITION_RIGHT                MOVLW   d'1'
02A9   07A8           01000                                                                 ADDWF   CURRENT_POSITION,1
02AA   0008           01001                                                                 RETURN
                      01002 
02AB   3001           01003 INCREMENT_POSITION_LEFT                 MOVLW   d'1'
02AC   02A8           01004                                                                 SUBWF   CURRENT_POSITION,1
02AD   0008           01005                                                                 RETURN
                      01006 
02AE   300A           01007 INCREMENT_POSITION_UP                   MOVLW   d'10'
02AF   02A8           01008                                                                 SUBWF   CURRENT_POSITION,1
02B0   22BF           01009                                                                 CALL    MOVE_CURSOR_TO_CURRENT_POSITION
02B1   0008           01010                                                                 RETURN
                      01011 
02B2   300A           01012 INCREMENT_POSITION_DOWN                 MOVLW   d'10'
02B3   07A8           01013                                                                 ADDWF   CURRENT_POSITION,1
02B4   22BF           01014                                                                 CALL    MOVE_CURSOR_TO_CURRENT_POSITION
02B5   0008           01015                                                                 RETURN
                      01016 
02B6   1800           01017 CHECK_INDF_PRINT        BTFSC INDF,0
02B7   233C           01018                                         CALL rectangle
02B8   1880           01019                                         BTFSC INDF,1
02B9   2341           01020                                         CALL empty
02BA   1900           01021                                         BTFSC INDF,2
02BB   231E           01022                                         CALL letterS
02BC   1980           01023                                         BTFSC INDF,3
02BD   22EC           01024                                         CALL letterE
02BE   0008           01025                                         RETURN
                      01026 
02BF   0828           01027 MOVE_CURSOR_TO_CURRENT_POSITION         MOVF    CURRENT_POSITION, 0
02C0   3C1E           01028                                                                         SUBLW   d'30'
                      01029 
                      01030                                                                         ;IF Z=0, C=0 : NEGATIVE RESULT, 
                            GO TO SECOND LINE MOVE
02C1   1903           01031                                                                         BTFSC   STATUS, Z       ;IF 1, T
                            HEN WE'RE SECOND LINE
02C2   2ACD           01032                                                                         GOTO    MOVE_SECONDLINE 
                      01033 
MPASM  5.35beta                       PROGRAM.ASM   4-25-2017  13:06:05         PAGE 22
Maze Solver

LOC  OBJECT CODE     LINE SOURCE TEXT
  VALUE

02C3   1C03           01034                                                                         BTFSS   STATUS, C       ;IF ZERO
                             THEN SECOND LINE
02C4   2ACD           01035                                                                         GOTO    MOVE_SECONDLINE
                      01036 
                      01037                                                                         ;IF Z=0, C = 1 : POSITIVE RESULT
                            , GOTO TO FIRST LINE MOVE
02C5   1D03           01038                                                                         BTFSS   STATUS, Z
02C6   2AC7           01039                                                                         GOTO    MOVE_FIRSTLINE
                      01040 
02C7   3008           01041 MOVE_FIRSTLINE          MOVLW b'01000' ; 3 bits to jump address
02C8   238F           01042                                         CALL ET
                      01043                                         
02C9   3014           01044                                         MOVLW   d'20'
02CA   0228           01045                                         SUBWF   CURRENT_POSITION,0
02CB   238F           01046                                         CALL    ET
02CC   0008           01047                                         RETURN
                      01048 
02CD   300C           01049 MOVE_SECONDLINE         MOVLW   b'01100' ; 3 bits to jump address
02CE   238F           01050                                         CALL    ET
                      01051 
02CF   301E           01052                                         MOVLW   d'30'
02D0   0228           01053                                         SUBWF   CURRENT_POSITION,0
02D1   238F           01054                                         CALL    ET
02D2   0008           01055                                         RETURN
                      01056                 
                      01057 
                      01058 ;-----------------------------------------------------------------------------
                      01059 ;------CHARACTER DECLARATIONS---------
                      01060 
02D3   3012           01061 charSp  MOVLW b'10010' ;upper bits of Space character
02D4   238F           01062                 CALL ET
02D5   3010           01063                 MOVLW b'10000' ;lower bits of Space character
02D6   238F           01064                 CALL ET 
02D7   0008           01065                 RETURN          
02D8   3015           01066 letterV MOVLW b'10101' ;upper bits of V
02D9   238F           01067                 CALL ET
02DA   3016           01068                 MOVLW b'10110' ;lower bits of V
02DB   238F           01069                 CALL ET  
02DC   0008           01070                 RETURN
02DD   3015           01071 letterR MOVLW b'10101' ;upper bits of R
02DE   238F           01072                 CALL ET
02DF   3012           01073                 MOVLW b'10010' ;lower bits of R
02E0   238F           01074                 CALL ET  
02E1   0008           01075                 RETURN
02E2   3014           01076 letterM MOVLW b'10100' ;upper bits of M
02E3   238F           01077                 CALL ET
02E4   301D           01078                 MOVLW b'11101' ;lower bits of M
02E5   238F           01079                 CALL ET 
02E6   0008           01080                 RETURN
02E7   3014           01081 letterD MOVLW b'10100' ;upper bits of D
02E8   238F           01082                 CALL ET
02E9   3014           01083                 MOVLW b'10100' ;lower bits of D
02EA   238F           01084                 CALL ET 
MPASM  5.35beta                       PROGRAM.ASM   4-25-2017  13:06:05         PAGE 23
Maze Solver

LOC  OBJECT CODE     LINE SOURCE TEXT
  VALUE

02EB   0008           01085                 RETURN
02EC   3014           01086 letterE MOVLW b'10100' ;upper bits of E
02ED   238F           01087                 CALL ET
02EE   3015           01088                 MOVLW b'10101' ;lower bits of E
02EF   238F           01089                 CALL ET 
02F0   0008           01090                 RETURN
02F1   3014           01091 letterF MOVLW b'10100' ;upper bits of F
02F2   238F           01092                 CALL ET
02F3   3016           01093                 MOVLW b'10110' ;lower bits of D
02F4   238F           01094                 CALL ET 
02F5   0008           01095                 RETURN
02F6   3014           01096 letterA MOVLW b'10100' ;upper bits of A
02F7   238F           01097                 CALL ET
02F8   3011           01098                 MOVLW b'10001' ;lower bits of A
02F9   238F           01099                 CALL ET 
02FA   0008           01100                 RETURN
02FB   3015           01101 letterU MOVLW b'10101' ;upper bits of U
02FC   238F           01102                 CALL ET
02FD   3015           01103                 MOVLW b'10101' ;lower bits of U
02FE   238F           01104                 CALL ET 
02FF   0008           01105                 RETURN
0300   3014           01106 letterL MOVLW b'10100' ;upper bits of L
0301   238F           01107                 CALL ET
0302   301C           01108                 MOVLW b'11100' ;lower bits of L
0303   238F           01109                 CALL ET 
0304   0008           01110                 RETURN
0305   3015           01111 letterT MOVLW b'10101' ;upper bits of T
0306   238F           01112                 CALL ET
0307   3014           01113                 MOVLW b'10100' ;lower bits of T
0308   238F           01114                 CALL ET 
0309   0008           01115                 RETURN
030A   3014           01116 letterH MOVLW b'10100'
030B   238F           01117                 CALL ET
030C   3018           01118                 MOVLW b'11000'
030D   238F           01119                 CALL ET
030E   0008           01120                 RETURN
030F   3014           01121 letterO MOVLW b'10100' ;upper bits of O
0310   238F           01122                 CALL ET
0311   301F           01123                 MOVLW b'11111' ;lower bits of O
0312   238F           01124                 CALL ET 
0313   0008           01125                 RETURN
0314   3015           01126 letterP MOVLW b'10101' ;upper bits of P
0315   238F           01127                 CALL ET
0316   3010           01128                 MOVLW b'10000' ;lower bits of P
0317   238F           01129                 CALL ET 
0318   0008           01130                 RETURN
0319   3014           01131 letterB MOVLW b'10100' ;upper bits of B
031A   238F           01132                 CALL ET
031B   3012           01133                 MOVLW b'10010' ;lower bits of B
031C   238F           01134                 CALL ET 
031D   0008           01135                 RETURN
031E   3015           01136 letterS MOVLW b'10101' ;upper bits of S
031F   238F           01137                 CALL ET
MPASM  5.35beta                       PROGRAM.ASM   4-25-2017  13:06:05         PAGE 24
Maze Solver

LOC  OBJECT CODE     LINE SOURCE TEXT
  VALUE

0320   3013           01138                 MOVLW b'10011' ;lower bits of S
0321   238F           01139                 CALL ET 
0322   0008           01140                 RETURN
0323   3014           01141 letterC MOVLW b'10100' ;upper bits of C
0324   238F           01142                 CALL ET
0325   3013           01143                 MOVLW b'10011' ;lower bits of C
0326   238F           01144                 CALL ET 
0327   0008           01145                 RETURN
0328   3015           01146 letterZ MOVLW b'10101' ;upper bits of Z
0329   238F           01147                 CALL ET
032A   301A           01148                 MOVLW b'11010' ;lower bits of Z
032B   238F           01149                 CALL ET 
032C   0008           01150                 RETURN
032D   3015           01151 letterX MOVLW b'10101' ;upper bits of X
032E   238F           01152                 CALL ET
032F   3018           01153                 MOVLW b'11000' ;lower bits of X
0330   238F           01154                 CALL ET 
0331   0008           01155                 RETURN
0332   3014           01156 letterI MOVLW b'10100' ;upper bits of I
0333   238F           01157                 CALL ET
0334   3019           01158                 MOVLW b'11001' ;lower bits of I
0335   238F           01159                 CALL ET 
0336   0008           01160                 RETURN
0337   3012           01161 charStar        MOVLW b'10010' ;upper bits of Star Character
0338   238F           01162                 CALL ET         
0339   301A           01163                 MOVLW b'11010' ;lower bits of Star Character
033A   238F           01164                 CALL ET 
033B   0008           01165                 RETURN
033C   301F           01166 rectangle       MOVLW   b'11111'
033D   238F           01167                         CALL    ET
033E   301F           01168                         MOVLW   b'11111'
033F   238F           01169                         CALL    ET
0340   0008           01170                         RETURN
0341   3015           01171 empty           MOVLW   b'10101'
0342   238F           01172                         CALL    ET      
0343   301F           01173                         MOVLW   b'11111'
0344   238F           01174                         CALL    ET
0345   0008           01175                         RETURN
0346   3014           01176 at                      MOVLW   b'10100'
0347   238F           01177                         CALL    ET      
0348   3010           01178                         MOVLW   b'10000'
0349   238F           01179                         CALL    ET
034A   0008           01180                         RETURN
034B   3012           01181 comma           MOVLW   b'10010'
034C   238F           01182                         CALL    ET      
034D   301C           01183                         MOVLW   b'11100'
034E   238F           01184                         CALL    ET
034F   0008           01185                         RETURN
0350   3013           01186 nb0                     MOVLW   b'10011'
0351   238F           01187                         CALL    ET      
0352   3010           01188                         MOVLW   b'10000'
0353   238F           01189                         CALL    ET
0354   0008           01190                         RETURN
MPASM  5.35beta                       PROGRAM.ASM   4-25-2017  13:06:05         PAGE 25
Maze Solver

LOC  OBJECT CODE     LINE SOURCE TEXT
  VALUE

0355   3013           01191 nb1                     MOVLW   b'10011'
0356   238F           01192                         CALL    ET      
0357   3011           01193                         MOVLW   b'10001'
0358   238F           01194                         CALL    ET
0359   0008           01195                         RETURN
035A   3013           01196 nb2                     MOVLW   b'10011'
035B   238F           01197                         CALL    ET      
035C   3012           01198                         MOVLW   b'10010'
035D   238F           01199                         CALL    ET
035E   0008           01200                         RETURN
035F   3013           01201 nb3                     MOVLW   b'10011'
0360   238F           01202                         CALL    ET      
0361   3013           01203                         MOVLW   b'10011'
0362   238F           01204                         CALL    ET
0363   0008           01205                         RETURN
0364   3013           01206 nb4                     MOVLW   b'10011'
0365   238F           01207                         CALL    ET      
0366   3014           01208                         MOVLW   b'10100'
0367   238F           01209                         CALL    ET
0368   0008           01210                         RETURN
0369   3013           01211 nb5                     MOVLW   b'10011'
036A   238F           01212                         CALL    ET      
036B   3015           01213                         MOVLW   b'10101'
036C   238F           01214                         CALL    ET
036D   0008           01215                         RETURN
036E   300C           01216 NEWLINE         MOVLW b'01100' ; 3 bits to jump address
036F   238F           01217                         CALL ET
                      01218                 
0370   3000           01219                         MOVLW b'00000' ; 4 bits to jump address
0371   238F           01220                         CALL ET
0372   0008           01221                         RETURN
                      01222 
0373   300C           01223 PRINTPATH       MOVLW   b'01100'
0374   238F           01224                         CALL    ET
0375   300B           01225                         MOVLW   b'01011'
0376   238F           01226                         CALL    ET
0377   2314           01227                         CALL    letterP
0378   22F6           01228                         CALL    letterA
0379   2305           01229                         CALL    letterT
037A   230A           01230                         CALL    letterH
037B   0008           01231                         RETURN
                      01232 
037C   1495           01233 SET_EMPTY_REGISTERS             BSF     d'21',1 ;empty
037D   1496           01234                                                 BSF     d'22',1 ;empty
037E   1497           01235                                                 BSF     d'23',1 ;empty
037F   1498           01236                                                 BSF     d'24',1 ;empty
0380   1499           01237                                                 BSF     d'25',1 ;empty
0381   149A           01238                                                 BSF     d'26',1 ;empty
0382   149B           01239                                                 BSF     d'27',1 ;empty
0383   149C           01240                                                 BSF     d'28',1 ;empty
0384   149D           01241                                                 BSF     d'29',1 ;empty
0385   149E           01242                                                 BSF     d'30',1 ;empty
0386   149F           01243                                                 BSF     d'31',1 ;empty
MPASM  5.35beta                       PROGRAM.ASM   4-25-2017  13:06:05         PAGE 26
Maze Solver

LOC  OBJECT CODE     LINE SOURCE TEXT
  VALUE

0387   14A0           01244                                                 BSF     d'32',1 ;empty
0388   14A1           01245                                                 BSF     d'33',1 ;empty
0389   14A2           01246                                                 BSF     d'34',1 ;empty
038A   14A3           01247                                                 BSF     d'35',1 ;empty
038B   14A4           01248                                                 BSF     d'36',1 ;empty
038C   14A5           01249                                                 BSF     d'37',1 ;empty
038D   14A6           01250                                                 BSF     d'38',1 ;empty
038E   0008           01251                                                 RETURN
                      01252 
                      01253 ;------------------------------------------
                      01254 
                      01255 ;------DELAYS AND OTHER FIXED FUNCTIONS---------
038F   0085           01256 ET              MOVWF   PORTA
0390   1486           01257                 BSF             PORTB,1; making a falling edge
0391   0000           01258                 NOP
0392   1086           01259                 BCF             PORTB,1
0393   23AA           01260                 CALL    PRINTDELAY; this is to wait for LCD to stop executing
0394   0008           01261                 RETURN
                      01262 
0395   3002           01263 LONGDELAY               MOVLW   d'2'
0396   00BB           01264                                 MOVWF   TEMP
                      01265 
0397   23A1           01266 LOOPLONG                CALL    POWERUPDELAY
0398   0BBB           01267                 DECFSZ  TEMP,1
0399   2B97           01268                 GOTO    LOOPLONG
039A   0008           01269                 RETURN
                      01270 
039B   3032           01271 LONGER_DELAY    MOVLW   d'50'
039C   00BB           01272                                 MOVWF   TEMP
                      01273 
039D   23A1           01274 LOOPLONG2               CALL    POWERUPDELAY
039E   0BBB           01275                 DECFSZ  TEMP,1
039F   2B97           01276                 GOTO    LOOPLONG
03A0   0008           01277                 RETURN
                      01278 
03A1   3000           01279 POWERUPDELAY    MOVLW   d'00'   ; setting up 40ms delay
03A2   008C           01280                                 MOVWF   COUNTER
03A3   3033           01281                                 MOVLW   d'51'
03A4   008D           01282                                 MOVWF   COUNTER2
                      01283 
03A5   0F8C           01284 LOOP    INCFSZ  COUNTER,F
03A6   2BA5           01285                 GOTO    LOOP
03A7   0B8D           01286                 DECFSZ  COUNTER2,F
03A8   2BA5           01287                 GOTO    LOOP
03A9   0008           01288                 RETURN
                      01289 
03AA   3000           01290 PRINTDELAY      MOVLW   d'00'; SETTING UP 3.85MS DELAY
03AB   008C           01291                         MOVWF   COUNTER 
03AC   3005           01292                         MOVLW   d'5'
03AD   008D           01293                         MOVWF   COUNTER2
                      01294 
03AE   0F8C           01295 LOOP1   INCFSZ  COUNTER,F
03AF   2BAE           01296                 GOTO    LOOP1   
MPASM  5.35beta                       PROGRAM.ASM   4-25-2017  13:06:05         PAGE 27
Maze Solver

LOC  OBJECT CODE     LINE SOURCE TEXT
  VALUE

03B0   0B8D           01297                 DECFSZ  COUNTER2,F
03B1   2BAE           01298                 GOTO    LOOP1
03B2   0008           01299                 RETURN
                      01300 
03B3   1406           01301 BUZZ_LONG       BSF             PORTB, 0
03B4   239B           01302                         CALL    LONGER_DELAY
03B5   1006           01303                         BCF             PORTB, 0
03B6   0008           01304                         RETURN
                      01305 
03B7   1406           01306 BUZZ_SHORT      BSF             PORTB, 0
03B8   300D           01307                         MOVLW   d'13'
03B9   00BB           01308                         MOVWF   TEMP
03BA   23A1           01309 SBUZZDELAY      CALL    POWERUPDELAY
03BB   0BBB           01310                         DECFSZ  TEMP,F
03BC   2BBA           01311                         GOTO    SBUZZDELAY
03BD   1006           01312                         BCF             PORTB, 0
03BE   0008           01313                         RETURN
                      01314 
03BF   30F9           01315 DEBOUNCE_DELAY  MOVLW   d'249'
03C0   0090           01316                                 MOVWF   DEBOUNCECOUNT
                      01317                         
03C1   0000           01318 DEBOUNCELOOP    NOP             
Message[305]: Using default destination of 1 (file).
03C2   0B90           01319                                 DECFSZ  DEBOUNCECOUNT
03C3   2BC1           01320                                 GOTO    DEBOUNCELOOP
03C4   0008           01321                                 RETURN
                      01322 
03C5   3000           01323 CLEARDISPLAY    MOVLW b'00000' ;initializing clear display
03C6   238F           01324                                 CALL ET
03C7   3001           01325                                 MOVLW b'00001' ;clear display
03C8   238F           01326                                 CALL ET
03C9   0008           01327                                 RETURN
                      01328 
03CA   3000           01329 SET_BLINKING    MOVLW   b'00000'        ;initializing display
03CB   238F           01330                                 CALL    ET                      
                      01331 
03CC   300F           01332                                 MOVLW   b'01111'        ;setting display to ON
03CD   238F           01333                                 CALL    ET
03CE   0008           01334                                 RETURN
                      01335 
03CF   3000           01336 CLEAR_BLINKING  MOVLW   b'00000'
03D0   238F           01337                                 CALL    ET
03D1   300C           01338                                 MOVLW   b'01100'
03D2   238F           01339                                 CALL    ET
03D3   0008           01340                                 RETURN
                      01341 
03D4   3000           01342 CURSOR_MOVELEFT         MOVLW   b'00000';set cursor move position to the left
03D5   238F           01343                                         CALL    ET
03D6   3004           01344                                         MOVLW   b'00100'
03D7   238F           01345                                         CALL    ET
03D8   0008           01346                                         RETURN
                      01347 
03D9   3000           01348 CURSOR_MOVERIGHT        MOVLW   b'00000';set cursor move position to the left
MPASM  5.35beta                       PROGRAM.ASM   4-25-2017  13:06:05         PAGE 28
Maze Solver

LOC  OBJECT CODE     LINE SOURCE TEXT
  VALUE

03DA   238F           01349                                         CALL    ET
03DB   3006           01350                                         MOVLW   b'00110'
03DC   238F           01351                                         CALL    ET
03DD   0008           01352                                         RETURN
                      01353 
03DE                  01354 CLEAR_REGISTERS                 ;CLEAR REGISTERS
03DE   3014           01355                                                 MOVLW   d'20' ;INITIALIZE POINTER
03DF   0084           01356                                                 MOVWF   FSR
03E0   0180           01357 NEXT2                                   CLRF    INDF
Message[305]: Using default destination of 1 (file).
03E1   0F84           01358                                                 INCFSZ  FSR
03E2   3028           01359                                                 MOVLW   d'40'
03E3   0204           01360                                                 SUBWF   FSR,0
03E4   1D03           01361                                                 BTFSS   STATUS,Z
03E5   2BE0           01362                                                 GOTO    NEXT2
03E6   0008           01363                                                 RETURN
                      01364 ;---------------------------
                      01365 
                      01366 ;-----------------INDIRECT ADDRESSING---------------------
                      01367 
03E7   3014           01368 INDA            MOVLW   d'20'
03E8   0084           01369                                 MOVWF   FSR
03E9   300A           01370                                 MOVLW   d'10'
03EA   0091           01371                                 MOVWF   ADDRESSING_COUNTER
03EB   2BF0           01372                                 GOTO    LOOP1M
                      01373 
03EC   301E           01374 INDA1           MOVLW d'30'
03ED   0084           01375                                 MOVWF FSR
03EE   300A           01376                                 MOVLW d'10'
03EF   0091           01377                                 MOVWF ADDRESSING_COUNTER
                      01378 
03F0   1800           01379 LOOP1M          BTFSC INDF,0
03F1   233C           01380                                 CALL rectangle
                      01381                                 
03F2   1880           01382                                 BTFSC INDF,1
03F3   2341           01383                                 CALL empty
                      01384 
03F4   1900           01385                                 BTFSC INDF,2
03F5   231E           01386                                 CALL letterS
                      01387 
03F6   1980           01388                                 BTFSC INDF,3
03F7   22EC           01389                                 CALL letterE
                      01390 
Message[305]: Using default destination of 1 (file).
03F8   0A84           01391                                 INCF FSR
Message[305]: Using default destination of 1 (file).
03F9   0B91           01392                                 DECFSZ ADDRESSING_COUNTER
                      01393 
03FA   2BF0           01394                                 GOTO  LOOP1M
03FB   0008           01395                                 RETURN
                      01396 
                      01397 
Warning[205]: Found directive in column 1. (END)
MPASM  5.35beta                       PROGRAM.ASM   4-25-2017  13:06:05         PAGE 29
Maze Solver

LOC  OBJECT CODE     LINE SOURCE TEXT
  VALUE

                      01398 END
MPASM  5.35beta                       PROGRAM.ASM   4-25-2017  13:06:05         PAGE 30
Maze Solver

SYMBOL TABLE
  LABEL                             VALUE 

ADDRESSING_COUNTER                00000011
ADJUST_NEXT_POSITION              000001AD
BLOCK_CURRENTPOSITION             0000027E
BUTTONPRESS                       000000D4
BUZZ_LONG                         000003B3
BUZZ_SHORT                        000003B7
C                                 00000000
CANNOT_PLACE                      000001E9
CHECK_DOWN                        00000250
CHECK_IF_DONE                     00000115
CHECK_INDF_PRINT                  000002B6
CHECK_LEFT                        00000228
CHECK_RIGHT                       00000214
CHECK_UP                          0000023C
CHOOSE_MODE                       000000E6
CLEARDISPLAY                      000003C5
CLEAR_BLINKING                    000003CF
CLEAR_REGISTERS                   000003DE
CONFIRM_BUTTON                    000000E1
COUNTER                           0000000C
COUNTER2                          0000000D
CURRENT_ADDRESS                   00000012
CURRENT_POSITION                  00000028
CURSOR_INCREMENT                  00000169
CURSOR_MOVELEFT                   000003D4
CURSOR_MOVERIGHT                  000003D9
CURSOR_NEXTLINE                   0000017D
CURSOR_POSITION                   0000002A
CURSOR_SWITCH_ROW                 00000188
DC                                00000001
DEBOUNCECOUNT                     00000010
DEBOUNCELOOP                      000003C1
DEBOUNCE_DELAY                    000003BF
DECREMENT                         0000017A
DEFAULT_START                     00000055
EEADR                             00000009
EECON1                            00000088
EECON2                            00000089
EEDATA                            00000008
EEIE                              00000006
EEIF                              00000004
EMPTY_CASE                        00000292
END_BUTTON                        00000104
ET                                0000038F
F                                 00000001
FSR                               00000004
GIE                               00000007
GREATER                           00000204
INCREMENT                         00000177
INCREMENT_CURSOR                  000002A1
INCREMENT_NEXT_POSITION           000001B2
INCREMENT_POINTER                 0000012C
INCREMENT_POSITION_DOWN           000002B2
MPASM  5.35beta                       PROGRAM.ASM   4-25-2017  13:06:05         PAGE 31
Maze Solver

SYMBOL TABLE
  LABEL                             VALUE 

INCREMENT_POSITION_LEFT           000002AB
INCREMENT_POSITION_RIGHT          000002A8
INCREMENT_POSITION_UP             000002AE
INDA                              000003E7
INDA1                             000003EC
INDF                              00000000
INIT_MAZE                         000001EF
INTCON                            0000000B
INTE                              00000004
INTEDG                            00000006
INTF                              00000001
IRP                               00000007
ITERATIONS_COUNTER                00000029
LINE                              0000002C
LONGDELAY                         00000395
LONGER_DELAY                      0000039B
LOOP                              000003A5
LOOP1                             000003AE
LOOP1M                            000003F0
LOOPLONG                          00000397
LOOPLONG2                         0000039D
MAZE_START                        000000AC
MAZE_STATUS                       0000002B
MENU                              00000032
MENULOOP                          00000054
MOVE_BUTTON                       000000DE
MOVE_CURSOR_MAZE                  0000015D
MOVE_CURSOR_OBSTACLE              00000162
MOVE_CURSOR_TO_CURRENT_POSITION   000002BF
MOVE_FIRSTLINE                    000002C7
MOVE_SECONDLINE                   000002CD
NEWLINE                           0000036E
NEXT                              00000289
NEXT2                             000003E0
NOPATH                            00000271
NOT_PD                            00000003
NOT_RBPU                          00000007
NOT_TO                            00000004
OBSTACLE_COUNTER                  00000013
OBSTACLE_START                    00000086
OPTION_REG                        00000081
PCL                               00000002
PCLATH                            0000000A
PLACE_MAZEMODE                    000001B8
PLACE_MAZEMODE_RETURN             000001E7
PLACE_OBSTACLE                    000001EB
PLACE_OBSTACLECHOOSE              000001A1
PLACE_OBSTACLEMODE                000001A4
PLACE_OBS_MAZEMODE                000001BE
PORTA                             00000005
PORTB                             00000006
POSITION1                         00000137
POSITION2                         00000143
MPASM  5.35beta                       PROGRAM.ASM   4-25-2017  13:06:05         PAGE 32
Maze Solver

SYMBOL TABLE
  LABEL                             VALUE 

POSITION3                         00000150
POWERUPDELAY                      000003A1
PREVIOUS_COMMAND                  0000002B
PRINTDELAY                        000003AA
PRINTPATH                         00000373
PRINT_ITERATIONS                  0000020F
PS0                               00000000
PS1                               00000001
PS2                               00000002
PSA                               00000003
RBIE                              00000003
RBIF                              00000000
RD                                00000000
REMAINING_CASE1                   000001C9
REMAINING_CASE2                   000001CE
REMAINING_CASE3                   000001D3
REMAINING_CASE4                   000001D8
REMAINING_NUMBER                  00000032
RETTIMER3                         0000012B
RETURN_TO_PREV_POSITION           000001DB
RETURN_TO_PROGRAM                 00000113
ROW1                              0000025A
ROW2                              00000246
RP0                               00000005
RP1                               00000006
S0                                000000EB
S00CHECKS1                        00000130
S01CHECKS1                        00000134
S1                                000000EF
SBUZZDELAY                        000003BA
SELECT                            0000000F
SET_BLINKING                      000003CA
SET_EMPTY_REGISTERS               0000037C
SMALLER                           0000020A
SOLVED                            00000264
SOLVE_MAZE                        00000211
START                             00000008
STARTING_POSITION                 0000002A
START_BUTTON                      000000F2
STATUS                            00000003
SWITCH_DOWN                       0000018B
SWITCH_UP                         00000196
T0CS                              00000005
T0IE                              00000005
T0IF                              00000002
T0SE                              00000004
TEMP                              0000003B
TIMER3                            0000000E
TMR0                              00000001
TRISA                             00000085
TRISB                             00000086
W                                 00000000
WELCOME                           00000022
MPASM  5.35beta                       PROGRAM.ASM   4-25-2017  13:06:05         PAGE 33
Maze Solver

SYMBOL TABLE
  LABEL                             VALUE 

WR                                00000001
WREN                              00000002
WRERR                             00000003
Z                                 00000002
_CP_OFF                           00003FFF
_CP_ON                            0000000F
_HS_OSC                           00003FFE
_LP_OSC                           00003FFC
_PWRTE_OFF                        00003FFF
_PWRTE_ON                         00003FF7
_RC_OSC                           00003FFF
_WDT_OFF                          00003FFB
_WDT_ON                           00003FFF
_XT_OSC                           00003FFD
__16F84A                          00000001
__DEBUG                           1
at                                00000346
charSp                            000002D3
charStar                          00000337
comma                             0000034B
empty                             00000341
letterA                           000002F6
letterB                           00000319
letterC                           00000323
letterD                           000002E7
letterE                           000002EC
letterF                           000002F1
letterH                           0000030A
letterI                           00000332
letterL                           00000300
letterM                           000002E2
letterO                           0000030F
letterP                           00000314
letterR                           000002DD
letterS                           0000031E
letterT                           00000305
letterU                           000002FB
letterV                           000002D8
letterX                           0000032D
letterZ                           00000328
nb0                               00000350
nb1                               00000355
nb2                               0000035A
nb3                               0000035F
nb4                               00000364
nb5                               00000369
rectangle                         0000033C
timerInterrupt                    00000121
MPASM  5.35beta                       PROGRAM.ASM   4-25-2017  13:06:05         PAGE 34
Maze Solver

MEMORY USAGE MAP ('X' = Used,  '-' = Unused)


0000 : X---XXXXXXXXXXXX XXXXXXXXXXXXXXXX XXXXXXXXXXXXXXXX XXXXXXXXXXXXXXXX
0040 : XXXXXXXXXXXXXXXX XXXXXXXXXXXXXXXX XXXXXXXXXXXXXXXX XXXXXXXXXXXXXXXX
0080 : XXXXXXXXXXXXXXXX XXXXXXXXXXXXXXXX XXXXXXXXXXXXXXXX XXXXXXXXXXXXXXXX
00C0 : XXXXXXXXXXXXXXXX XXXXXXXXXXXXXXXX XXXXXXXXXXXXXXXX XXXXXXXXXXXXXXXX
0100 : XXXXXXXXXXXXXXXX XXXXXXXXXXXXXXXX XXXXXXXXXXXXXXXX XXXXXXXXXXXXXXXX
0140 : XXXXXXXXXXXXXXXX XXXXXXXXXXXXXXXX XXXXXXXXXXXXXXXX XXXXXXXXXXXXXXXX
0180 : XXXXXXXXXXXXXXXX XXXXXXXXXXXXXXXX XXXXXXXXXXXXXXXX XXXXXXXXXXXXXXXX
01C0 : XXXXXXXXXXXXXXXX XXXXXXXXXXXXXXXX XXXXXXXXXXXXXXXX XXXXXXXXXXXXXXXX
0200 : XXXXXXXXXXXXXXXX XXXXXXXXXXXXXXXX XXXXXXXXXXXXXXXX XXXXXXXXXXXXXXXX
0240 : XXXXXXXXXXXXXXXX XXXXXXXXXXXXXXXX XXXXXXXXXXXXXXXX XXXXXXXXXXXXXXXX
0280 : XXXXXXXXXXXXXXXX XXXXXXXXXXXXXXXX XXXXXXXXXXXXXXXX XXXXXXXXXXXXXXXX
02C0 : XXXXXXXXXXXXXXXX XXXXXXXXXXXXXXXX XXXXXXXXXXXXXXXX XXXXXXXXXXXXXXXX
0300 : XXXXXXXXXXXXXXXX XXXXXXXXXXXXXXXX XXXXXXXXXXXXXXXX XXXXXXXXXXXXXXXX
0340 : XXXXXXXXXXXXXXXX XXXXXXXXXXXXXXXX XXXXXXXXXXXXXXXX XXXXXXXXXXXXXXXX
0380 : XXXXXXXXXXXXXXXX XXXXXXXXXXXXXXXX XXXXXXXXXXXXXXXX XXXXXXXXXXXXXXXX
03C0 : XXXXXXXXXXXXXXXX XXXXXXXXXXXXXXXX XXXXXXXXXXXXXXXX XXXXXXXXXXXX----

All other memory blocks unused.

Program Memory Words Used:  1017
Program Memory Words Free:     7


Errors   :     0
Warnings :     1 reported,     0 suppressed
Messages :    17 reported,     0 suppressed

